; Function Attrs: mustprogress uwtable
define void @_ZN32pxrInternal_v0_24__pxrReserved__7TfDebug6Helper3MsgERKNSt7__cxx1112basic_stringIcSt11char_traitsIcESaIcEEE(ptr noundef nonnull align 8 dereferenceable(32) %0) local_unnamed_addr #0 align 2 {
  tail call fastcc void @_ZN32pxrInternal_v0_24__pxrReserved__L14_GetOutputFileEv()
  %2 = load atomic i64, ptr @_ZZN32pxrInternal_v0_24__pxrReserved__L14_GetOutputFileEvE11_outputFile seq_cst, align 8
  %.0.i = inttoptr i64 %2 to ptr
  %3 = tail call noundef ptr @_ZNKSt7__cxx1112basic_stringIcSt11char_traitsIcESaIcEE5c_strEv(ptr noundef nonnull align 8 dereferenceable(32) %0) #12
  %fputs = tail call i32 @fputs(ptr %3, ptr %.0.i)
  %4 = tail call i32 @fflush(ptr noundef %.0.i)
  ret void
}